target datalayout = "e-m:e-p270:32:32-p271:32:32-p272:64:64-i64:64-i128:128-f80:128-n8:16:32:64-S128"
target triple = "x86_64-pc-linux-gnu"

%union.EX_STYPE = type { ptr }
%struct.Exnode_s = type { i32, i32, i32, ptr, %union.anon.1, %union.Exdata_u, i32 }
%union.anon.1 = type { ptr }
%union.Exdata_u = type { %struct.anon.5 }
%struct.anon.5 = type { ptr, ptr, ptr, ptr }
%struct.Expr_s = type { ptr, ptr, [10 x ptr], ptr, ptr, ptr, %struct._dtdisc_s, ptr, ptr, ptr, %struct.agxbuf, %union.EX_STYPE, %struct.Exid_s, [512 x i8], ptr, i32, i32, i32, i32, i64, i32, i32 }
%struct._dtdisc_s = type { i32, i32, i32, ptr, ptr, ptr }
%struct.agxbuf = type { %union.anon }
%union.anon = type { %struct.anon }
%struct.anon = type { ptr, i64, i64, [7 x i8], i8 }
%struct.Exid_s = type { %struct._dtlink_s, i64, i64, i64, i64, i64, ptr, ptr, i64, [32 x i8] }
%struct._dtlink_s = type { ptr, %union.anon.0 }
%union.anon.0 = type { ptr }
%struct.anon.3 = type { ptr, ptr, ptr }
%struct.anon.8 = type { ptr, ptr, ptr }
%struct.Exdisc_s = type { i64, i64, ptr, ptr, ptr, ptr, ptr, ptr, ptr, ptr, ptr, ptr, ptr, ptr, ptr, ptr, ptr, ptr, ptr }

@typename = internal global [6 x ptr] [ptr @.str.57, ptr @.str.58, ptr @.str.59, ptr @.str.60, ptr @.str.61, ptr @.str.62], align 16
@.str.87 = private unnamed_addr constant [30 x i8] c"cannot use non-array %s in %s\00", align 1
@.str.88 = private unnamed_addr constant [53 x i8] c"in %s, array %s must have integer index type, not %s\00", align 1
@.str.89 = private unnamed_addr constant [54 x i8] c"in %s, array %s entries must have string type, not %s\00", align 1
@.str.90 = private unnamed_addr constant [51 x i8] c"first argument to %s must have string type, not %s\00", align 1
@.str.91 = private unnamed_addr constant [51 x i8] c"third argument to %s must have string type, not %s\00", align 1

; Function Attrs: nounwind uwtable
define ptr @exnewnode(ptr noundef %0, i32 noundef %1, i32 noundef %2, i32 noundef %3, ptr noundef %4, ptr noundef %5) #0 {
  %7 = alloca ptr, align 8
  %8 = alloca i32, align 4
  %9 = alloca i32, align 4
  %10 = alloca i32, align 4
  %11 = alloca ptr, align 8
  %12 = alloca ptr, align 8
  %13 = alloca ptr, align 8
  %14 = alloca %struct.Exnode_s, align 8
  store ptr %0, ptr %7, align 8
  store i32 %1, ptr %8, align 4
  store i32 %2, ptr %9, align 4
  store i32 %3, ptr %10, align 4
  store ptr %4, ptr %11, align 8
  store ptr %5, ptr %12, align 8
  %15 = load ptr, ptr %7, align 8
  %16 = getelementptr inbounds %struct.Expr_s, ptr %15, i32 0, i32 3
  %17 = load ptr, ptr %16, align 8
  %18 = call ptr @vmalloc(ptr noundef %17, i64 noundef 72)
  store ptr %18, ptr %13, align 8
  %19 = load ptr, ptr %13, align 8
  call void @llvm.memset.p0.i64(ptr align 8 %14, i8 0, i64 72, i1 false)
  call void @llvm.memcpy.p0.p0.i64(ptr align 8 %19, ptr align 8 %14, i64 72, i1 false)
  %20 = load i32, ptr %8, align 4
  %21 = load ptr, ptr %13, align 8
  %22 = getelementptr inbounds %struct.Exnode_s, ptr %21, i32 0, i32 1
  store i32 %20, ptr %22, align 4
  %23 = load i32, ptr %10, align 4
  %24 = load ptr, ptr %13, align 8
  %25 = getelementptr inbounds %struct.Exnode_s, ptr %24, i32 0, i32 0
  store i32 %23, ptr %25, align 8
  %26 = load i32, ptr %9, align 4
  %27 = load ptr, ptr %13, align 8
  %28 = getelementptr inbounds %struct.Exnode_s, ptr %27, i32 0, i32 2
  store i32 %26, ptr %28, align 8
  %29 = load ptr, ptr %13, align 8
  %30 = getelementptr inbounds %struct.Exnode_s, ptr %29, i32 0, i32 3
  store ptr null, ptr %30, align 8
  %31 = load ptr, ptr %11, align 8
  %32 = load ptr, ptr %13, align 8
  %33 = getelementptr inbounds %struct.Exnode_s, ptr %32, i32 0, i32 5
  %34 = getelementptr inbounds %struct.anon.3, ptr %33, i32 0, i32 0
  store ptr %31, ptr %34, align 8
  %35 = load ptr, ptr %12, align 8
  %36 = load ptr, ptr %13, align 8
  %37 = getelementptr inbounds %struct.Exnode_s, ptr %36, i32 0, i32 5
  %38 = getelementptr inbounds %struct.anon.3, ptr %37, i32 0, i32 1
  store ptr %35, ptr %38, align 8
  %39 = load ptr, ptr %13, align 8
  ret ptr %39
}

; Function Attrs: nounwind uwtable
define ptr @extypename(ptr noundef %0, i32 noundef %1) #0 {
  %3 = alloca ptr, align 8
  %4 = alloca ptr, align 8
  %5 = alloca i32, align 4
  store ptr %0, ptr %4, align 8
  store i32 %1, ptr %5, align 4
  %6 = load i32, ptr %5, align 4
  %7 = icmp sgt i32 %6, 258
  br i1 %7, label %8, label %24

8:                                                ; preds = %2
  %9 = load i32, ptr %5, align 4
  %10 = icmp sge i32 %9, 259
  br i1 %10, label %11, label %18

11:                                               ; preds = %8
  %12 = load i32, ptr %5, align 4
  %13 = icmp sle i32 %12, 263
  br i1 %13, label %14, label %18

14:                                               ; preds = %11
  %15 = load i32, ptr %5, align 4
  %16 = sub nsw i32 %15, 259
  %17 = add nsw i32 %16, 1
  br label %19

18:                                               ; preds = %11, %8
  br label %19

19:                                               ; preds = %18, %14
  %20 = phi i32 [ %17, %14 ], [ 0, %18 ]
  %21 = sext i32 %20 to i64
  %22 = getelementptr inbounds [6 x ptr], ptr @typename, i64 0, i64 %21
  %23 = load ptr, ptr %22, align 8
  store ptr %23, ptr %3, align 8
  br label %32

24:                                               ; preds = %2
  %25 = load ptr, ptr %4, align 8
  %26 = getelementptr inbounds %struct.Expr_s, ptr %25, i32 0, i32 7
  %27 = load ptr, ptr %26, align 8
  %28 = getelementptr inbounds %struct.Exdisc_s, ptr %27, i32 0, i32 9
  %29 = load ptr, ptr %28, align 8
  %30 = load i32, ptr %5, align 4
  %31 = call ptr %29(i32 noundef %30)
  store ptr %31, ptr %3, align 8
  br label %32

32:                                               ; preds = %24, %19
  %33 = load ptr, ptr %3, align 8
  ret ptr %33
}

; Function Attrs: nounwind uwtable
define internal ptr @exnewsplit(ptr noundef %0, i32 noundef %1, ptr noundef %2, ptr noundef %3, ptr noundef %4) #0 {
  %6 = alloca ptr, align 8
  %7 = alloca i32, align 4
  %8 = alloca ptr, align 8
  %9 = alloca ptr, align 8
  %10 = alloca ptr, align 8
  %11 = alloca ptr, align 8
  store ptr %0, ptr %6, align 8
  store i32 %1, ptr %7, align 4
  store ptr %2, ptr %8, align 8
  store ptr %3, ptr %9, align 8
  store ptr %4, ptr %10, align 8
  store ptr null, ptr %11, align 8
  %12 = load ptr, ptr %8, align 8
  %13 = getelementptr inbounds %struct.Exid_s, ptr %12, i32 0, i32 7
  %14 = load ptr, ptr %13, align 8
  %15 = icmp eq ptr %14, null
  br i1 %15, label %16, label %22

16:                                               ; preds = %5
  %17 = load ptr, ptr %8, align 8
  %18 = getelementptr inbounds %struct.Exid_s, ptr %17, i32 0, i32 9
  %19 = getelementptr inbounds [32 x i8], ptr %18, i64 0, i64 0
  %20 = load i32, ptr %7, align 4
  %21 = call ptr @exopname(i32 noundef %20)
  call void (ptr, ...) @exerror(ptr noundef @.str.87, ptr noundef %19, ptr noundef %21)
  br label %22

22:                                               ; preds = %16, %5
  %23 = load ptr, ptr %8, align 8
  %24 = getelementptr inbounds %struct.Exid_s, ptr %23, i32 0, i32 4
  %25 = load i64, ptr %24, align 8
  %26 = icmp sgt i64 %25, 0
  br i1 %26, label %27, label %43

27:                                               ; preds = %22
  %28 = load ptr, ptr %8, align 8
  %29 = getelementptr inbounds %struct.Exid_s, ptr %28, i32 0, i32 4
  %30 = load i64, ptr %29, align 8
  %31 = icmp ne i64 %30, 259
  br i1 %31, label %32, label %43

32:                                               ; preds = %27
  %33 = load i32, ptr %7, align 4
  %34 = call ptr @exopname(i32 noundef %33)
  %35 = load ptr, ptr %8, align 8
  %36 = getelementptr inbounds %struct.Exid_s, ptr %35, i32 0, i32 9
  %37 = getelementptr inbounds [32 x i8], ptr %36, i64 0, i64 0
  %38 = load ptr, ptr %6, align 8
  %39 = load ptr, ptr %9, align 8
  %40 = getelementptr inbounds %struct.Exnode_s, ptr %39, i32 0, i32 0
  %41 = load i32, ptr %40, align 8
  %42 = call ptr @extypename(ptr noundef %38, i32 noundef %41)
  call void (ptr, ...) @exerror(ptr noundef @.str.88, ptr noundef %34, ptr noundef %37, ptr noundef %42)
  br label %43

43:                                               ; preds = %32, %27, %22
  %44 = load ptr, ptr %8, align 8
  %45 = getelementptr inbounds %struct.Exid_s, ptr %44, i32 0, i32 3
  %46 = load i64, ptr %45, align 8
  %47 = icmp ne i64 %46, 263
  br i1 %47, label %48, label %59

48:                                               ; preds = %43
  %49 = load i32, ptr %7, align 4
  %50 = call ptr @exopname(i32 noundef %49)
  %51 = load ptr, ptr %8, align 8
  %52 = getelementptr inbounds %struct.Exid_s, ptr %51, i32 0, i32 9
  %53 = getelementptr inbounds [32 x i8], ptr %52, i64 0, i64 0
  %54 = load ptr, ptr %6, align 8
  %55 = load ptr, ptr %9, align 8
  %56 = getelementptr inbounds %struct.Exnode_s, ptr %55, i32 0, i32 0
  %57 = load i32, ptr %56, align 8
  %58 = call ptr @extypename(ptr noundef %54, i32 noundef %57)
  call void (ptr, ...) @exerror(ptr noundef @.str.89, ptr noundef %50, ptr noundef %53, ptr noundef %58)
  br label %59

59:                                               ; preds = %48, %43
  %60 = load ptr, ptr %9, align 8
  %61 = getelementptr inbounds %struct.Exnode_s, ptr %60, i32 0, i32 0
  %62 = load i32, ptr %61, align 8
  %63 = icmp ne i32 %62, 263
  br i1 %63, label %64, label %72

64:                                               ; preds = %59
  %65 = load i32, ptr %7, align 4
  %66 = call ptr @exopname(i32 noundef %65)
  %67 = load ptr, ptr %6, align 8
  %68 = load ptr, ptr %9, align 8
  %69 = getelementptr inbounds %struct.Exnode_s, ptr %68, i32 0, i32 0
  %70 = load i32, ptr %69, align 8
  %71 = call ptr @extypename(ptr noundef %67, i32 noundef %70)
  call void (ptr, ...) @exerror(ptr noundef @.str.90, ptr noundef %66, ptr noundef %71)
  br label %72

72:                                               ; preds = %64, %59
  %73 = load ptr, ptr %10, align 8
  %74 = icmp ne ptr %73, null
  br i1 %74, label %75, label %88

75:                                               ; preds = %72
  %76 = load ptr, ptr %10, align 8
  %77 = getelementptr inbounds %struct.Exnode_s, ptr %76, i32 0, i32 0
  %78 = load i32, ptr %77, align 8
  %79 = icmp ne i32 %78, 263
  br i1 %79, label %80, label %88

80:                                               ; preds = %75
  %81 = load i32, ptr %7, align 4
  %82 = call ptr @exopname(i32 noundef %81)
  %83 = load ptr, ptr %6, align 8
  %84 = load ptr, ptr %10, align 8
  %85 = getelementptr inbounds %struct.Exnode_s, ptr %84, i32 0, i32 0
  %86 = load i32, ptr %85, align 8
  %87 = call ptr @extypename(ptr noundef %83, i32 noundef %86)
  call void (ptr, ...) @exerror(ptr noundef @.str.91, ptr noundef %82, ptr noundef %87)
  br label %88

88:                                               ; preds = %80, %75, %72
  %89 = load ptr, ptr %6, align 8
  %90 = load i32, ptr %7, align 4
  %91 = call ptr @exnewnode(ptr noundef %89, i32 noundef %90, i32 noundef 0, i32 noundef 259, ptr noundef null, ptr noundef null)
  store ptr %91, ptr %11, align 8
  %92 = load ptr, ptr %8, align 8
  %93 = load ptr, ptr %11, align 8
  %94 = getelementptr inbounds %struct.Exnode_s, ptr %93, i32 0, i32 5
  %95 = getelementptr inbounds %struct.anon.8, ptr %94, i32 0, i32 0
  store ptr %92, ptr %95, align 8
  %96 = load ptr, ptr %9, align 8
  %97 = load ptr, ptr %11, align 8
  %98 = getelementptr inbounds %struct.Exnode_s, ptr %97, i32 0, i32 5
  %99 = getelementptr inbounds %struct.anon.8, ptr %98, i32 0, i32 1
  store ptr %96, ptr %99, align 8
  %100 = load ptr, ptr %10, align 8
  %101 = load ptr, ptr %11, align 8
  %102 = getelementptr inbounds %struct.Exnode_s, ptr %101, i32 0, i32 5
  %103 = getelementptr inbounds %struct.anon.8, ptr %102, i32 0, i32 2
  store ptr %100, ptr %103, align 8
  %104 = load ptr, ptr %11, align 8
  ret ptr %104
}