; Function Attrs: nounwind uwtable
define internal fastcc noundef ptr @exnewsplit(ptr noundef readonly captures(none) %0, i32 noundef %1, ptr noundef %2, ptr noundef %3, ptr noundef %4) unnamed_addr #0 {
  %6 = getelementptr inbounds nuw i8, ptr %2, i64 64
  %7 = load ptr, ptr %6, align 8
  %8 = icmp eq ptr %7, null
  br i1 %8, label %9, label %12

9:                                                ; preds = %5
  %10 = getelementptr inbounds nuw i8, ptr %2, i64 80
  %11 = tail call ptr @exopname(i32 noundef %1) #22
  tail call void (ptr, ...) @exerror(ptr noundef nonnull @.str.87, ptr noundef nonnull %10, ptr noundef %11) #22
  br label %12

12:                                               ; preds = %9, %5
  %13 = getelementptr inbounds nuw i8, ptr %2, i64 40
  %14 = load i64, ptr %13, align 8
  %15 = icmp slt i64 %14, 1
  %.not = icmp eq i64 %14, 259
  %or.cond = or i1 %15, %.not
  br i1 %or.cond, label %34, label %16

16:                                               ; preds = %12
  %17 = tail call ptr @exopname(i32 noundef %1) #22
  %18 = getelementptr inbounds nuw i8, ptr %2, i64 80
  %19 = load i32, ptr %3, align 8
  %20 = icmp sgt i32 %19, 258
  br i1 %20, label %21, label %28

21:                                               ; preds = %16
  %22 = icmp samesign ult i32 %19, 264
  %23 = add nsw i32 %19, -258
  %24 = select i1 %22, i32 %23, i32 0
  %25 = zext nneg i32 %24 to i64
  %26 = getelementptr inbounds nuw [6 x ptr], ptr @typename, i64 0, i64 %25
  %27 = load ptr, ptr %26, align 8
  br label %extypename.exit

28:                                               ; preds = %16
  %29 = getelementptr inbounds nuw i8, ptr %0, i64 160
  %30 = load ptr, ptr %29, align 8
  %31 = getelementptr inbounds nuw i8, ptr %30, i64 72
  %32 = load ptr, ptr %31, align 8
  %33 = tail call ptr %32(i32 noundef %19) #22
  br label %extypename.exit

extypename.exit:                                  ; preds = %21, %28
  %.0.i = phi ptr [ %27, %21 ], [ %33, %28 ]
  tail call void (ptr, ...) @exerror(ptr noundef nonnull @.str.88, ptr noundef %17, ptr noundef nonnull %18, ptr noundef %.0.i) #22
  br label %34

34:                                               ; preds = %extypename.exit, %12
  %35 = getelementptr inbounds nuw i8, ptr %2, i64 32
  %36 = load i64, ptr %35, align 8
  %.not32 = icmp eq i64 %36, 263
  br i1 %.not32, label %55, label %37

37:                                               ; preds = %34
  %38 = tail call ptr @exopname(i32 noundef %1) #22
  %39 = getelementptr inbounds nuw i8, ptr %2, i64 80
  %40 = load i32, ptr %3, align 8
  %41 = icmp sgt i32 %40, 258
  br i1 %41, label %42, label %49

42:                                               ; preds = %37
  %43 = icmp samesign ult i32 %40, 264
  %44 = add nsw i32 %40, -258
  %45 = select i1 %43, i32 %44, i32 0
  %46 = zext nneg i32 %45 to i64
  %47 = getelementptr inbounds nuw [6 x ptr], ptr @typename, i64 0, i64 %46
  %48 = load ptr, ptr %47, align 8
  br label %extypename.exit37

49:                                               ; preds = %37
  %50 = getelementptr inbounds nuw i8, ptr %0, i64 160
  %51 = load ptr, ptr %50, align 8
  %52 = getelementptr inbounds nuw i8, ptr %51, i64 72
  %53 = load ptr, ptr %52, align 8
  %54 = tail call ptr %53(i32 noundef %40) #22
  br label %extypename.exit37

extypename.exit37:                                ; preds = %42, %49
  %.0.i36 = phi ptr [ %48, %42 ], [ %54, %49 ]
  tail call void (ptr, ...) @exerror(ptr noundef nonnull @.str.89, ptr noundef %38, ptr noundef nonnull %39, ptr noundef %.0.i36) #22
  br label %55

55:                                               ; preds = %extypename.exit37, %34
  %56 = load i32, ptr %3, align 8
  %.not33 = icmp eq i32 %56, 263
  br i1 %.not33, label %74, label %57

57:                                               ; preds = %55
  %58 = tail call ptr @exopname(i32 noundef %1) #22
  %59 = load i32, ptr %3, align 8
  %60 = icmp sgt i32 %59, 258
  br i1 %60, label %61, label %68

61:                                               ; preds = %57
  %62 = icmp samesign ult i32 %59, 264
  %63 = add nsw i32 %59, -258
  %64 = select i1 %62, i32 %63, i32 0
  %65 = zext nneg i32 %64 to i64
  %66 = getelementptr inbounds nuw [6 x ptr], ptr @typename, i64 0, i64 %65
  %67 = load ptr, ptr %66, align 8
  br label %extypename.exit39

68:                                               ; preds = %57
  %69 = getelementptr inbounds nuw i8, ptr %0, i64 160
  %70 = load ptr, ptr %69, align 8
  %71 = getelementptr inbounds nuw i8, ptr %70, i64 72
  %72 = load ptr, ptr %71, align 8
  %73 = tail call ptr %72(i32 noundef %59) #22
  br label %extypename.exit39

extypename.exit39:                                ; preds = %61, %68
  %.0.i38 = phi ptr [ %67, %61 ], [ %73, %68 ]
  tail call void (ptr, ...) @exerror(ptr noundef nonnull @.str.90, ptr noundef %58, ptr noundef %.0.i38) #22
  br label %74

74:                                               ; preds = %extypename.exit39, %55
  %.not34 = icmp eq ptr %4, null
  br i1 %.not34, label %94, label %75

75:                                               ; preds = %74
  %76 = load i32, ptr %4, align 8
  %.not35 = icmp eq i32 %76, 263
  br i1 %.not35, label %94, label %77

77:                                               ; preds = %75
  %78 = tail call ptr @exopname(i32 noundef %1) #22
  %79 = load i32, ptr %4, align 8
  %80 = icmp sgt i32 %79, 258
  br i1 %80, label %81, label %88

81:                                               ; preds = %77
  %82 = icmp samesign ult i32 %79, 264
  %83 = add nsw i32 %79, -258
  %84 = select i1 %82, i32 %83, i32 0
  %85 = zext nneg i32 %84 to i64
  %86 = getelementptr inbounds nuw [6 x ptr], ptr @typename, i64 0, i64 %85
  %87 = load ptr, ptr %86, align 8
  br label %extypename.exit41

88:                                               ; preds = %77
  %89 = getelementptr inbounds nuw i8, ptr %0, i64 160
  %90 = load ptr, ptr %89, align 8
  %91 = getelementptr inbounds nuw i8, ptr %90, i64 72
  %92 = load ptr, ptr %91, align 8
  %93 = tail call ptr %92(i32 noundef %79) #22
  br label %extypename.exit41

extypename.exit41:                                ; preds = %81, %88
  %.0.i40 = phi ptr [ %87, %81 ], [ %93, %88 ]
  tail call void (ptr, ...) @exerror(ptr noundef nonnull @.str.91, ptr noundef %78, ptr noundef %.0.i40) #22
  br label %94

94:                                               ; preds = %extypename.exit41, %75, %74
  %95 = getelementptr inbounds nuw i8, ptr %0, i64 96
  %96 = load ptr, ptr %95, align 8
  %97 = tail call ptr @vmalloc(ptr noundef %96, i64 noundef 72) #22
  %98 = getelementptr inbounds nuw i8, ptr %97, i64 8
  tail call void @llvm.memset.p0.i64(ptr noundef nonnull align 8 dereferenceable(64) %98, i8 0, i64 64, i1 false)
  %99 = getelementptr inbounds nuw i8, ptr %97, i64 4
  store i32 %1, ptr %99, align 4
  store i32 259, ptr %97, align 8
  %100 = getelementptr inbounds nuw i8, ptr %97, i64 32
  %101 = getelementptr inbounds nuw i8, ptr %97, i64 40
  store ptr %2, ptr %100, align 8
  store ptr %3, ptr %101, align 8
  %102 = getelementptr inbounds nuw i8, ptr %97, i64 48
  store ptr %4, ptr %102, align 8
  ret ptr %97
}